target datalayout = "e-m:e-p270:32:32-p271:32:32-p272:64:64-i64:64-i128:128-f80:128-n8:16:32:64-S128"
target triple = "x86_64-pc-linux-gnu"

%struct.JNINativeInterface_ = type { ptr, ptr, ptr, ptr, ptr, ptr, ptr, ptr, ptr, ptr, ptr, ptr, ptr, ptr, ptr, ptr, ptr, ptr, ptr, ptr, ptr, ptr, ptr, ptr, ptr, ptr, ptr, ptr, ptr, ptr, ptr, ptr, ptr, ptr, ptr, ptr, ptr, ptr, ptr, ptr, ptr, ptr, ptr, ptr, ptr, ptr, ptr, ptr, ptr, ptr, ptr, ptr, ptr, ptr, ptr, ptr, ptr, ptr, ptr, ptr, ptr, ptr, ptr, ptr, ptr, ptr, ptr, ptr, ptr, ptr, ptr, ptr, ptr, ptr, ptr, ptr, ptr, ptr, ptr, ptr, ptr, ptr, ptr, ptr, ptr, ptr, ptr, ptr, ptr, ptr, ptr, ptr, ptr, ptr, ptr, ptr, ptr, ptr, ptr, ptr, ptr, ptr, ptr, ptr, ptr, ptr, ptr, ptr, ptr, ptr, ptr, ptr, ptr, ptr, ptr, ptr, ptr, ptr, ptr, ptr, ptr, ptr, ptr, ptr, ptr, ptr, ptr, ptr, ptr, ptr, ptr, ptr, ptr, ptr, ptr, ptr, ptr, ptr, ptr, ptr, ptr, ptr, ptr, ptr, ptr, ptr, ptr, ptr, ptr, ptr, ptr, ptr, ptr, ptr, ptr, ptr, ptr, ptr, ptr, ptr, ptr, ptr, ptr, ptr, ptr, ptr, ptr, ptr, ptr, ptr, ptr, ptr, ptr, ptr, ptr, ptr, ptr, ptr, ptr, ptr, ptr, ptr, ptr, ptr, ptr, ptr, ptr, ptr, ptr, ptr, ptr, ptr, ptr, ptr, ptr, ptr, ptr, ptr, ptr, ptr, ptr, ptr, ptr, ptr, ptr, ptr, ptr, ptr, ptr, ptr, ptr, ptr, ptr, ptr, ptr, ptr, ptr, ptr, ptr, ptr, ptr, ptr, ptr, ptr, ptr, ptr, ptr, ptr, ptr, ptr, ptr, ptr, ptr, ptr, ptr }
%struct.tag_ControlCreatorJNI = type { %struct.tag_PortControlCreator, ptr, ptr, ptr, ptr, ptr, ptr, ptr, ptr, ptr, ptr, ptr }
%struct.tag_PortControlCreator = type { ptr, ptr, ptr, ptr }

@.str.1 = private unnamed_addr constant [7 x i8] c"<init>\00", align 1
@.str.8 = private unnamed_addr constant [40 x i8] c"com/sun/media/sound/PortMixer$FloatCtrl\00", align 1
@.str.9 = private unnamed_addr constant [44 x i8] c"(JLjava/lang/String;FFFLjava/lang/String;)V\00", align 1
@.str.10 = private unnamed_addr constant [27 x i8] c"(JIFFFLjava/lang/String;)V\00", align 1

; Function Attrs: nounwind uwtable
define hidden ptr @PORT_NewFloatControl(ptr noundef %0, ptr noundef %1, ptr noundef %2, float noundef %3, float noundef %4, float noundef %5, ptr noundef %6) #0 {
  %8 = alloca ptr, align 8
  %9 = alloca ptr, align 8
  %10 = alloca ptr, align 8
  %11 = alloca ptr, align 8
  %12 = alloca float, align 4
  %13 = alloca float, align 4
  %14 = alloca float, align 4
  %15 = alloca ptr, align 8
  %16 = alloca ptr, align 8
  %17 = alloca ptr, align 8
  %18 = alloca ptr, align 8
  %19 = alloca ptr, align 8
  store ptr %0, ptr %9, align 8
  store ptr %1, ptr %10, align 8
  store ptr %2, ptr %11, align 8
  store float %3, ptr %12, align 4
  store float %4, ptr %13, align 4
  store float %5, ptr %14, align 4
  store ptr %6, ptr %15, align 8
  %20 = load ptr, ptr %9, align 8
  store ptr %20, ptr %16, align 8
  store ptr null, ptr %17, align 8
  %21 = load ptr, ptr %16, align 8
  %22 = getelementptr inbounds %struct.tag_ControlCreatorJNI, ptr %21, i32 0, i32 9
  %23 = load ptr, ptr %22, align 8
  %24 = icmp ne ptr %23, null
  br i1 %24, label %86, label %25

25:                                               ; preds = %7
  %26 = load ptr, ptr %16, align 8
  %27 = getelementptr inbounds %struct.tag_ControlCreatorJNI, ptr %26, i32 0, i32 1
  %28 = load ptr, ptr %27, align 8
  %29 = load ptr, ptr %28, align 8
  %30 = getelementptr inbounds %struct.JNINativeInterface_, ptr %29, i32 0, i32 6
  %31 = load ptr, ptr %30, align 8
  %32 = load ptr, ptr %16, align 8
  %33 = getelementptr inbounds %struct.tag_ControlCreatorJNI, ptr %32, i32 0, i32 1
  %34 = load ptr, ptr %33, align 8
  %35 = call ptr %31(ptr noundef %34, ptr noundef @.str.8)
  %36 = load ptr, ptr %16, align 8
  %37 = getelementptr inbounds %struct.tag_ControlCreatorJNI, ptr %36, i32 0, i32 9
  store ptr %35, ptr %37, align 8
  %38 = load ptr, ptr %16, align 8
  %39 = getelementptr inbounds %struct.tag_ControlCreatorJNI, ptr %38, i32 0, i32 9
  %40 = load ptr, ptr %39, align 8
  %41 = icmp ne ptr %40, null
  br i1 %41, label %43, label %42

42:                                               ; preds = %25
  store ptr null, ptr %8, align 8
  br label %201

43:                                               ; preds = %25
  %44 = load ptr, ptr %16, align 8
  %45 = getelementptr inbounds %struct.tag_ControlCreatorJNI, ptr %44, i32 0, i32 1
  %46 = load ptr, ptr %45, align 8
  %47 = load ptr, ptr %46, align 8
  %48 = getelementptr inbounds %struct.JNINativeInterface_, ptr %47, i32 0, i32 33
  %49 = load ptr, ptr %48, align 8
  %50 = load ptr, ptr %16, align 8
  %51 = getelementptr inbounds %struct.tag_ControlCreatorJNI, ptr %50, i32 0, i32 1
  %52 = load ptr, ptr %51, align 8
  %53 = load ptr, ptr %16, align 8
  %54 = getelementptr inbounds %struct.tag_ControlCreatorJNI, ptr %53, i32 0, i32 9
  %55 = load ptr, ptr %54, align 8
  %56 = call ptr %49(ptr noundef %52, ptr noundef %55, ptr noundef @.str.1, ptr noundef @.str.9)
  %57 = load ptr, ptr %16, align 8
  %58 = getelementptr inbounds %struct.tag_ControlCreatorJNI, ptr %57, i32 0, i32 10
  store ptr %56, ptr %58, align 8
  %59 = load ptr, ptr %16, align 8
  %60 = getelementptr inbounds %struct.tag_ControlCreatorJNI, ptr %59, i32 0, i32 10
  %61 = load ptr, ptr %60, align 8
  %62 = icmp ne ptr %61, null
  br i1 %62, label %64, label %63

63:                                               ; preds = %43
  store ptr null, ptr %8, align 8
  br label %201

64:                                               ; preds = %43
  %65 = load ptr, ptr %16, align 8
  %66 = getelementptr inbounds %struct.tag_ControlCreatorJNI, ptr %65, i32 0, i32 1
  %67 = load ptr, ptr %66, align 8
  %68 = load ptr, ptr %67, align 8
  %69 = getelementptr inbounds %struct.JNINativeInterface_, ptr %68, i32 0, i32 33
  %70 = load ptr, ptr %69, align 8
  %71 = load ptr, ptr %16, align 8
  %72 = getelementptr inbounds %struct.tag_ControlCreatorJNI, ptr %71, i32 0, i32 1
  %73 = load ptr, ptr %72, align 8
  %74 = load ptr, ptr %16, align 8
  %75 = getelementptr inbounds %struct.tag_ControlCreatorJNI, ptr %74, i32 0, i32 9
  %76 = load ptr, ptr %75, align 8
  %77 = call ptr %70(ptr noundef %73, ptr noundef %76, ptr noundef @.str.1, ptr noundef @.str.10)
  %78 = load ptr, ptr %16, align 8
  %79 = getelementptr inbounds %struct.tag_ControlCreatorJNI, ptr %78, i32 0, i32 11
  store ptr %77, ptr %79, align 8
  %80 = load ptr, ptr %16, align 8
  %81 = getelementptr inbounds %struct.tag_ControlCreatorJNI, ptr %80, i32 0, i32 11
  %82 = load ptr, ptr %81, align 8
  %83 = icmp ne ptr %82, null
  br i1 %83, label %85, label %84

84:                                               ; preds = %64
  store ptr null, ptr %8, align 8
  br label %201

85:                                               ; preds = %64
  br label %86

86:                                               ; preds = %85, %7
  %87 = load ptr, ptr %16, align 8
  %88 = getelementptr inbounds %struct.tag_ControlCreatorJNI, ptr %87, i32 0, i32 1
  %89 = load ptr, ptr %88, align 8
  %90 = load ptr, ptr %89, align 8
  %91 = getelementptr inbounds %struct.JNINativeInterface_, ptr %90, i32 0, i32 167
  %92 = load ptr, ptr %91, align 8
  %93 = load ptr, ptr %16, align 8
  %94 = getelementptr inbounds %struct.tag_ControlCreatorJNI, ptr %93, i32 0, i32 1
  %95 = load ptr, ptr %94, align 8
  %96 = load ptr, ptr %15, align 8
  %97 = call ptr %92(ptr noundef %95, ptr noundef %96)
  store ptr %97, ptr %18, align 8
  br label %98

98:                                               ; preds = %86
  %99 = load ptr, ptr %18, align 8
  %100 = icmp eq ptr %99, null
  br i1 %100, label %101, label %103

101:                                              ; preds = %98
  %102 = load ptr, ptr %17, align 8
  store ptr %102, ptr %8, align 8
  br label %201

103:                                              ; preds = %98
  br label %104

104:                                              ; preds = %103
  %105 = load ptr, ptr %11, align 8
  %106 = ptrtoint ptr %105 to i64
  %107 = icmp ule i64 %106, 4
  br i1 %107, label %108, label %137

108:                                              ; preds = %104
  %109 = load ptr, ptr %16, align 8
  %110 = getelementptr inbounds %struct.tag_ControlCreatorJNI, ptr %109, i32 0, i32 1
  %111 = load ptr, ptr %110, align 8
  %112 = load ptr, ptr %111, align 8
  %113 = getelementptr inbounds %struct.JNINativeInterface_, ptr %112, i32 0, i32 28
  %114 = load ptr, ptr %113, align 8
  %115 = load ptr, ptr %16, align 8
  %116 = getelementptr inbounds %struct.tag_ControlCreatorJNI, ptr %115, i32 0, i32 1
  %117 = load ptr, ptr %116, align 8
  %118 = load ptr, ptr %16, align 8
  %119 = getelementptr inbounds %struct.tag_ControlCreatorJNI, ptr %118, i32 0, i32 9
  %120 = load ptr, ptr %119, align 8
  %121 = load ptr, ptr %16, align 8
  %122 = getelementptr inbounds %struct.tag_ControlCreatorJNI, ptr %121, i32 0, i32 11
  %123 = load ptr, ptr %122, align 8
  %124 = load ptr, ptr %10, align 8
  %125 = ptrtoint ptr %124 to i64
  %126 = load ptr, ptr %11, align 8
  %127 = ptrtoint ptr %126 to i64
  %128 = trunc i64 %127 to i32
  %129 = load float, ptr %12, align 4
  %130 = fpext float %129 to double
  %131 = load float, ptr %13, align 4
  %132 = fpext float %131 to double
  %133 = load float, ptr %14, align 4
  %134 = fpext float %133 to double
  %135 = load ptr, ptr %18, align 8
  %136 = call ptr (ptr, ptr, ptr, ...) %114(ptr noundef %117, ptr noundef %120, ptr noundef %123, i64 noundef %125, i32 noundef %128, double noundef %130, double noundef %132, double noundef %134, ptr noundef %135)
  store ptr %136, ptr %17, align 8
  br label %182

137:                                              ; preds = %104
  %138 = load ptr, ptr %16, align 8
  %139 = getelementptr inbounds %struct.tag_ControlCreatorJNI, ptr %138, i32 0, i32 1
  %140 = load ptr, ptr %139, align 8
  %141 = load ptr, ptr %140, align 8
  %142 = getelementptr inbounds %struct.JNINativeInterface_, ptr %141, i32 0, i32 167
  %143 = load ptr, ptr %142, align 8
  %144 = load ptr, ptr %16, align 8
  %145 = getelementptr inbounds %struct.tag_ControlCreatorJNI, ptr %144, i32 0, i32 1
  %146 = load ptr, ptr %145, align 8
  %147 = load ptr, ptr %11, align 8
  %148 = call ptr %143(ptr noundef %146, ptr noundef %147)
  store ptr %148, ptr %19, align 8
  br label %149

149:                                              ; preds = %137
  %150 = load ptr, ptr %19, align 8
  %151 = icmp eq ptr %150, null
  br i1 %151, label %152, label %154

152:                                              ; preds = %149
  %153 = load ptr, ptr %17, align 8
  store ptr %153, ptr %8, align 8
  br label %201

154:                                              ; preds = %149
  br label %155

155:                                              ; preds = %154
  %156 = load ptr, ptr %16, align 8
  %157 = getelementptr inbounds %struct.tag_ControlCreatorJNI, ptr %156, i32 0, i32 1
  %158 = load ptr, ptr %157, align 8
  %159 = load ptr, ptr %158, align 8
  %160 = getelementptr inbounds %struct.JNINativeInterface_, ptr %159, i32 0, i32 28
  %161 = load ptr, ptr %160, align 8
  %162 = load ptr, ptr %16, align 8
  %163 = getelementptr inbounds %struct.tag_ControlCreatorJNI, ptr %162, i32 0, i32 1
  %164 = load ptr, ptr %163, align 8
  %165 = load ptr, ptr %16, align 8
  %166 = getelementptr inbounds %struct.tag_ControlCreatorJNI, ptr %165, i32 0, i32 9
  %167 = load ptr, ptr %166, align 8
  %168 = load ptr, ptr %16, align 8
  %169 = getelementptr inbounds %struct.tag_ControlCreatorJNI, ptr %168, i32 0, i32 10
  %170 = load ptr, ptr %169, align 8
  %171 = load ptr, ptr %10, align 8
  %172 = ptrtoint ptr %171 to i64
  %173 = load ptr, ptr %19, align 8
  %174 = load float, ptr %12, align 4
  %175 = fpext float %174 to double
  %176 = load float, ptr %13, align 4
  %177 = fpext float %176 to double
  %178 = load float, ptr %14, align 4
  %179 = fpext float %178 to double
  %180 = load ptr, ptr %18, align 8
  %181 = call ptr (ptr, ptr, ptr, ...) %161(ptr noundef %164, ptr noundef %167, ptr noundef %170, i64 noundef %172, ptr noundef %173, double noundef %175, double noundef %177, double noundef %179, ptr noundef %180)
  store ptr %181, ptr %17, align 8
  br label %182

182:                                              ; preds = %155, %108
  %183 = load ptr, ptr %17, align 8
  %184 = icmp ne ptr %183, null
  br i1 %184, label %186, label %185

185:                                              ; preds = %182
  br label %186

186:                                              ; preds = %185, %182
  %187 = load ptr, ptr %16, align 8
  %188 = getelementptr inbounds %struct.tag_ControlCreatorJNI, ptr %187, i32 0, i32 1
  %189 = load ptr, ptr %188, align 8
  %190 = load ptr, ptr %189, align 8
  %191 = getelementptr inbounds %struct.JNINativeInterface_, ptr %190, i32 0, i32 15
  %192 = load ptr, ptr %191, align 8
  %193 = load ptr, ptr %16, align 8
  %194 = getelementptr inbounds %struct.tag_ControlCreatorJNI, ptr %193, i32 0, i32 1
  %195 = load ptr, ptr %194, align 8
  %196 = call ptr %192(ptr noundef %195)
  %197 = icmp ne ptr %196, null
  br i1 %197, label %198, label %199

198:                                              ; preds = %186
  br label %199

199:                                              ; preds = %198, %186
  %200 = load ptr, ptr %17, align 8
  store ptr %200, ptr %8, align 8
  br label %201

201:                                              ; preds = %199, %152, %101, %84, %63, %42
  %202 = load ptr, ptr %8, align 8
  ret ptr %202
}