; Function Attrs: nounwind uwtable
define hidden ptr @PORT_NewFloatControl(ptr nocapture noundef %0, ptr noundef %1, ptr noundef %2, float noundef %3, float noundef %4, float noundef %5, ptr noundef %6) #0 {
  %8 = getelementptr inbounds i8, ptr %0, i64 96
  %9 = load ptr, ptr %8, align 8
  %.not = icmp eq ptr %9, null
  br i1 %.not, label %10, label %32

10:                                               ; preds = %7
  %11 = getelementptr inbounds i8, ptr %0, i64 32
  %12 = load ptr, ptr %11, align 8
  %13 = load ptr, ptr %12, align 8
  %14 = getelementptr inbounds i8, ptr %13, i64 48
  %15 = load ptr, ptr %14, align 8
  %16 = tail call ptr %15(ptr noundef nonnull %12, ptr noundef nonnull @.str.8) #3
  store ptr %16, ptr %8, align 8
  %.not57 = icmp eq ptr %16, null
  br i1 %.not57, label %83, label %17

17:                                               ; preds = %10
  %18 = load ptr, ptr %11, align 8
  %19 = load ptr, ptr %18, align 8
  %20 = getelementptr inbounds i8, ptr %19, i64 264
  %21 = load ptr, ptr %20, align 8
  %22 = tail call ptr %21(ptr noundef nonnull %18, ptr noundef nonnull %16, ptr noundef nonnull @.str.1, ptr noundef nonnull @.str.9) #3
  %23 = getelementptr inbounds i8, ptr %0, i64 104
  store ptr %22, ptr %23, align 8
  %.not58 = icmp eq ptr %22, null
  br i1 %.not58, label %83, label %24

24:                                               ; preds = %17
  %25 = load ptr, ptr %11, align 8
  %26 = load ptr, ptr %25, align 8
  %27 = getelementptr inbounds i8, ptr %26, i64 264
  %28 = load ptr, ptr %27, align 8
  %29 = load ptr, ptr %8, align 8
  %30 = tail call ptr %28(ptr noundef nonnull %25, ptr noundef %29, ptr noundef nonnull @.str.1, ptr noundef nonnull @.str.10) #3
  %31 = getelementptr inbounds i8, ptr %0, i64 112
  store ptr %30, ptr %31, align 8
  %.not59 = icmp eq ptr %30, null
  br i1 %.not59, label %83, label %32

32:                                               ; preds = %24, %7
  %33 = getelementptr inbounds i8, ptr %0, i64 32
  %34 = load ptr, ptr %33, align 8
  %35 = load ptr, ptr %34, align 8
  %36 = getelementptr inbounds i8, ptr %35, i64 1336
  %37 = load ptr, ptr %36, align 8
  %38 = tail call ptr %37(ptr noundef nonnull %34, ptr noundef %6) #3
  %39 = icmp eq ptr %38, null
  br i1 %39, label %83, label %40

40:                                               ; preds = %32
  %41 = icmp ult ptr %2, inttoptr (i64 5 to ptr)
  br i1 %41, label %42, label %57

42:                                               ; preds = %40
  %43 = ptrtoint ptr %2 to i64
  %44 = load ptr, ptr %33, align 8
  %45 = load ptr, ptr %44, align 8
  %46 = getelementptr inbounds i8, ptr %45, i64 224
  %47 = load ptr, ptr %46, align 8
  %48 = load ptr, ptr %8, align 8
  %49 = getelementptr inbounds i8, ptr %0, i64 112
  %50 = load ptr, ptr %49, align 8
  %51 = ptrtoint ptr %1 to i64
  %52 = trunc nuw nsw i64 %43 to i32
  %53 = fpext float %3 to double
  %54 = fpext float %4 to double
  %55 = fpext float %5 to double
  %56 = tail call ptr (ptr, ptr, ptr, ...) %47(ptr noundef nonnull %44, ptr noundef %48, ptr noundef %50, i64 noundef %51, i32 noundef %52, double noundef %53, double noundef %54, double noundef %55, ptr noundef nonnull %38) #3
  br label %77

57:                                               ; preds = %40
  %58 = load ptr, ptr %33, align 8
  %59 = load ptr, ptr %58, align 8
  %60 = getelementptr inbounds i8, ptr %59, i64 1336
  %61 = load ptr, ptr %60, align 8
  %62 = tail call ptr %61(ptr noundef nonnull %58, ptr noundef %2) #3
  %63 = icmp eq ptr %62, null
  br i1 %63, label %83, label %64

64:                                               ; preds = %57
  %65 = load ptr, ptr %33, align 8
  %66 = load ptr, ptr %65, align 8
  %67 = getelementptr inbounds i8, ptr %66, i64 224
  %68 = load ptr, ptr %67, align 8
  %69 = load ptr, ptr %8, align 8
  %70 = getelementptr inbounds i8, ptr %0, i64 104
  %71 = load ptr, ptr %70, align 8
  %72 = ptrtoint ptr %1 to i64
  %73 = fpext float %3 to double
  %74 = fpext float %4 to double
  %75 = fpext float %5 to double
  %76 = tail call ptr (ptr, ptr, ptr, ...) %68(ptr noundef nonnull %65, ptr noundef %69, ptr noundef %71, i64 noundef %72, ptr noundef nonnull %62, double noundef %73, double noundef %74, double noundef %75, ptr noundef nonnull %38) #3
  br label %77

77:                                               ; preds = %64, %42
  %.052 = phi ptr [ %56, %42 ], [ %76, %64 ]
  %78 = load ptr, ptr %33, align 8
  %79 = load ptr, ptr %78, align 8
  %80 = getelementptr inbounds i8, ptr %79, i64 120
  %81 = load ptr, ptr %80, align 8
  %82 = tail call ptr %81(ptr noundef nonnull %78) #3
  br label %83

83:                                               ; preds = %57, %32, %24, %17, %10, %77
  %.0 = phi ptr [ %.052, %77 ], [ null, %10 ], [ null, %17 ], [ null, %24 ], [ null, %32 ], [ null, %57 ]
  ret ptr %.0
}